; Function Attrs: mustprogress uwtable
define void @_ZN5faiss23ResidualCoarseQuantizer15set_beam_factorEf(ptr noundef nonnull align 8 dereferenceable(508) %0, float noundef %1) local_unnamed_addr #2 align 2 personality ptr @__gxx_personality_v0 {
  %3 = alloca %"class.std::__cxx11::basic_string", align 8
  %4 = getelementptr inbounds i8, ptr %0, i64 504
  store float %1, ptr %4, align 8
  %5 = fcmp ogt float %1, 0.000000e+00
  br i1 %5, label %6, label %32

6:                                                ; preds = %2
  %7 = fcmp ult float %1, 1.000000e+00
  br i1 %7, label %8, label %24

8:                                                ; preds = %6
  call void @_ZNSt7__cxx1112basic_stringIcSt11char_traitsIcESaIcEEC1Ev(ptr noundef nonnull align 8 dereferenceable(32) %3) #14
  %9 = call i32 (ptr, i64, ptr, ...) @snprintf(ptr noundef null, i64 noundef 0, ptr noundef nonnull @.str, ptr noundef nonnull @.str.17) #14
  %10 = add nsw i32 %9, 1
  %11 = sext i32 %10 to i64
  invoke void @_ZNSt7__cxx1112basic_stringIcSt11char_traitsIcESaIcEE6resizeEm(ptr noundef nonnull align 8 dereferenceable(32) %3, i64 noundef %11)
          to label %12 unwind label %19

12:                                               ; preds = %8
  %13 = invoke noundef nonnull align 1 dereferenceable(1) ptr @_ZNSt7__cxx1112basic_stringIcSt11char_traitsIcESaIcEEixEm(ptr noundef nonnull align 8 dereferenceable(32) %3, i64 noundef 0)
          to label %14 unwind label %19

14:                                               ; preds = %12
  %15 = call noundef i64 @_ZNKSt7__cxx1112basic_stringIcSt11char_traitsIcESaIcEE4sizeEv(ptr noundef nonnull align 8 dereferenceable(32) %3) #14
  %16 = call i32 (ptr, i64, ptr, ...) @snprintf(ptr noundef nonnull %13, i64 noundef %15, ptr noundef nonnull @.str, ptr noundef nonnull @.str.17) #14
  %17 = call ptr @__cxa_allocate_exception(i64 40) #14
  invoke void @_ZN5faiss14FaissExceptionC1ERKNSt7__cxx1112basic_stringIcSt11char_traitsIcESaIcEEEPKcSA_i(ptr noundef nonnull align 8 dereferenceable(40) %17, ptr noundef nonnull align 8 dereferenceable(32) %3, ptr noundef nonnull @__PRETTY_FUNCTION__._ZN5faiss23ResidualCoarseQuantizer15set_beam_factorEf, ptr noundef nonnull @.str.2, i32 noundef 502)
          to label %18 unwind label %21

18:                                               ; preds = %14
  invoke void @__cxa_throw(ptr nonnull %17, ptr nonnull @_ZTIN5faiss14FaissExceptionE, ptr nonnull @_ZN5faiss14FaissExceptionD2Ev) #21
          to label %74 unwind label %19

19:                                               ; preds = %18, %12, %8
  %20 = landingpad { ptr, i32 }
          cleanup
  br label %23

21:                                               ; preds = %14
  %22 = landingpad { ptr, i32 }
          cleanup
  call void @__cxa_free_exception(ptr %17) #14
  br label %23

23:                                               ; preds = %21, %19
  %.pn = phi { ptr, i32 } [ %20, %19 ], [ %22, %21 ]
  call void @_ZNSt7__cxx1112basic_stringIcSt11char_traitsIcESaIcEED1Ev(ptr noundef nonnull align 8 dereferenceable(32) %3) #14
  resume { ptr, i32 } %.pn

24:                                               ; preds = %6
  %25 = getelementptr inbounds i8, ptr %0, i64 456
  %26 = getelementptr inbounds i8, ptr %0, i64 464
  %27 = load ptr, ptr %26, align 8
  %28 = load ptr, ptr %25, align 8
  %29 = icmp eq ptr %27, %28
  br i1 %29, label %30, label %73

30:                                               ; preds = %24
  %31 = getelementptr inbounds i8, ptr %0, i64 72
  tail call void @_ZN5faiss17ResidualQuantizer23compute_codebook_tablesEv(ptr noundef nonnull align 8 dereferenceable(432) %31)
  br label %73

32:                                               ; preds = %2
  %33 = getelementptr inbounds i8, ptr %0, i64 456
  %34 = getelementptr inbounds i8, ptr %0, i64 464
  %35 = load ptr, ptr %34, align 8
  %36 = load ptr, ptr %33, align 8
  %.not.i.i = icmp eq ptr %35, %36
  br i1 %.not.i.i, label %_ZNSt6vectorIfSaIfEE6resizeEm.exit, label %37

37:                                               ; preds = %32
  store ptr %36, ptr %34, align 8
  br label %_ZNSt6vectorIfSaIfEE6resizeEm.exit

_ZNSt6vectorIfSaIfEE6resizeEm.exit:               ; preds = %32, %37
  %38 = getelementptr inbounds i8, ptr %0, i64 28
  %39 = load i32, ptr %38, align 4
  %40 = icmp eq i32 %39, 1
  br i1 %40, label %41, label %73

41:                                               ; preds = %_ZNSt6vectorIfSaIfEE6resizeEm.exit
  %42 = getelementptr inbounds i8, ptr %0, i64 16
  %43 = load i64, ptr %42, align 8
  %44 = getelementptr inbounds i8, ptr %0, i64 48
  %45 = getelementptr inbounds i8, ptr %0, i64 56
  %46 = load ptr, ptr %45, align 8
  %47 = load ptr, ptr %44, align 8
  %48 = ptrtoint ptr %46 to i64
  %49 = ptrtoint ptr %47 to i64
  %50 = sub i64 %48, %49
  %51 = ashr exact i64 %50, 2
  %.not = icmp eq i64 %43, %51
  br i1 %.not, label %73, label %52

52:                                               ; preds = %41
  %53 = getelementptr inbounds i8, ptr %0, i64 24
  %54 = load i8, ptr %53, align 8
  %55 = and i8 %54, 1
  %.not8 = icmp eq i8 %55, 0
  br i1 %.not8, label %58, label %56

56:                                               ; preds = %52
  %57 = tail call i32 (ptr, ...) @printf(ptr noundef nonnull dereferenceable(1) @.str.13, i64 noundef %43)
  %.pre = load i64, ptr %42, align 8
  %.pre12 = load ptr, ptr %45, align 8
  %.pre13 = load ptr, ptr %44, align 8
  %.pre15 = ptrtoint ptr %.pre12 to i64
  %.pre16 = ptrtoint ptr %.pre13 to i64
  %.pre18 = sub i64 %.pre15, %.pre16
  %.pre20 = ashr exact i64 %.pre18, 2
  br label %58

58:                                               ; preds = %56, %52
  %.pre-phi21 = phi i64 [ %.pre20, %56 ], [ %51, %52 ]
  %59 = phi ptr [ %.pre13, %56 ], [ %47, %52 ]
  %60 = phi ptr [ %.pre12, %56 ], [ %46, %52 ]
  %61 = phi i64 [ %.pre, %56 ], [ %43, %52 ]
  %62 = icmp ult i64 %.pre-phi21, %61
  br i1 %62, label %63, label %65

63:                                               ; preds = %58
  %64 = sub i64 %61, %.pre-phi21
  tail call void @_ZNSt6vectorIfSaIfEE17_M_default_appendEm(ptr noundef nonnull align 8 dereferenceable(24) %44, i64 noundef %64)
  %.pre14 = load ptr, ptr %44, align 8
  br label %_ZNSt6vectorIfSaIfEE6resizeEm.exit11

65:                                               ; preds = %58
  %66 = icmp ugt i64 %.pre-phi21, %61
  br i1 %66, label %67, label %_ZNSt6vectorIfSaIfEE6resizeEm.exit11

67:                                               ; preds = %65
  %68 = getelementptr inbounds float, ptr %59, i64 %61
  %.not.i.i10 = icmp eq ptr %60, %68
  br i1 %.not.i.i10, label %_ZNSt6vectorIfSaIfEE6resizeEm.exit11, label %69

69:                                               ; preds = %67
  store ptr %68, ptr %45, align 8
  br label %_ZNSt6vectorIfSaIfEE6resizeEm.exit11

_ZNSt6vectorIfSaIfEE6resizeEm.exit11:             ; preds = %63, %65, %67, %69
  %70 = phi ptr [ %.pre14, %63 ], [ %59, %65 ], [ %59, %67 ], [ %59, %69 ]
  %71 = getelementptr inbounds i8, ptr %0, i64 40
  %72 = load ptr, ptr %71, align 8
  tail call void @_ZNK5faiss17AdditiveQuantizer22compute_centroid_normsEPf(ptr noundef nonnull align 8 dereferenceable(308) %72, ptr noundef %70)
  br label %73

73:                                               ; preds = %_ZNSt6vectorIfSaIfEE6resizeEm.exit, %41, %_ZNSt6vectorIfSaIfEE6resizeEm.exit11, %24, %30
  ret void

74:                                               ; preds = %18
  unreachable
}